; Function Attrs: mustprogress uwtable
define noundef i32 @_ZN6icu_7722FormattedStringBuilder6insertEiRKS0_R10UErrorCode(ptr noundef nonnull align 8 dereferenceable(136) %0, i32 noundef %1, ptr noundef nonnull readonly align 8 dereferenceable(136) %2, ptr noundef nonnull align 4 captures(none) dereferenceable(4) %3) local_unnamed_addr #5 align 2 {
  %5 = load i32, ptr %3, align 4, !tbaa !16
  %6 = icmp slt i32 %5, 1
  br i1 %6, label %7, label %.loopexit

7:                                                ; preds = %4
  %8 = icmp eq ptr %0, %2
  br i1 %8, label %9, label %10

9:                                                ; preds = %7
  store i32 1, ptr %3, align 4, !tbaa !16
  br label %.loopexit

10:                                               ; preds = %7
  %11 = getelementptr inbounds nuw i8, ptr %2, i64 132
  %12 = load i32, ptr %11, align 4, !tbaa !10
  %13 = icmp eq i32 %12, 0
  br i1 %13, label %.loopexit, label %14

14:                                               ; preds = %10
  %15 = icmp eq i32 %1, 0
  br i1 %15, label %16, label %25

16:                                               ; preds = %14
  %17 = getelementptr inbounds nuw i8, ptr %0, i64 128
  %18 = load i32, ptr %17, align 8, !tbaa !9
  %19 = sub nsw i32 %18, %12
  %20 = icmp sgt i32 %19, -1
  br i1 %20, label %21, label %25

21:                                               ; preds = %16
  store i32 %19, ptr %17, align 8, !tbaa !9
  %22 = getelementptr inbounds nuw i8, ptr %0, i64 132
  %23 = load i32, ptr %22, align 4, !tbaa !10
  %24 = add nsw i32 %23, %12
  store i32 %24, ptr %22, align 4, !tbaa !10
  br label %_ZN6icu_7722FormattedStringBuilder16prepareForInsertEiiR10UErrorCode.exit

25:                                               ; preds = %16, %14
  %26 = getelementptr inbounds nuw i8, ptr %0, i64 132
  %27 = load i32, ptr %26, align 4, !tbaa !10
  %28 = icmp eq i32 %1, %27
  br i1 %28, label %29, label %41

29:                                               ; preds = %25
  %30 = load i8, ptr %0, align 8, !tbaa !3, !range !11, !noundef !12
  %31 = trunc nuw i8 %30 to i1
  %32 = getelementptr inbounds nuw i8, ptr %0, i64 16
  %33 = load i32, ptr %32, align 8
  %34 = select i1 %31, i32 %33, i32 40
  %35 = getelementptr inbounds nuw i8, ptr %0, i64 128
  %36 = load i32, ptr %35, align 8, !tbaa !9
  %37 = add i32 %36, %1
  %38 = sub i32 %34, %37
  %.not16.i = icmp sgt i32 %12, %38
  br i1 %.not16.i, label %41, label %39

39:                                               ; preds = %29
  %40 = add nsw i32 %12, %1
  store i32 %40, ptr %26, align 4, !tbaa !10
  br label %_ZN6icu_7722FormattedStringBuilder16prepareForInsertEiiR10UErrorCode.exit

41:                                               ; preds = %29, %25
  %42 = tail call noundef i32 @_ZN6icu_7722FormattedStringBuilder22prepareForInsertHelperEiiR10UErrorCode(ptr noundef nonnull align 8 dereferenceable(136) %0, i32 noundef %1, i32 noundef %12, ptr noundef nonnull align 4 dereferenceable(4) %3)
  %.pre = load i32, ptr %3, align 4, !tbaa !16
  br label %_ZN6icu_7722FormattedStringBuilder16prepareForInsertEiiR10UErrorCode.exit

_ZN6icu_7722FormattedStringBuilder16prepareForInsertEiiR10UErrorCode.exit: ; preds = %21, %39, %41
  %43 = phi i32 [ %5, %21 ], [ %5, %39 ], [ %.pre, %41 ]
  %.0.i = phi i32 [ %19, %21 ], [ %37, %39 ], [ %42, %41 ]
  %44 = icmp slt i32 %43, 1
  %45 = icmp sgt i32 %12, 0
  %or.cond = and i1 %44, %45
  br i1 %or.cond, label %.lr.ph, label %.loopexit

.lr.ph:                                           ; preds = %_ZN6icu_7722FormattedStringBuilder16prepareForInsertEiiR10UErrorCode.exit
  %46 = getelementptr inbounds nuw i8, ptr %2, i64 8
  %47 = getelementptr inbounds nuw i8, ptr %2, i64 128
  %48 = getelementptr inbounds nuw i8, ptr %0, i64 8
  %49 = getelementptr inbounds nuw i8, ptr %2, i64 88
  %50 = getelementptr inbounds nuw i8, ptr %0, i64 88
  %51 = sext i32 %.0.i to i64
  %wide.trip.count = zext nneg i32 %12 to i64
  br label %52

52:                                               ; preds = %.lr.ph, %52
  %indvars.iv = phi i64 [ 0, %.lr.ph ], [ %indvars.iv.next, %52 ]
  %53 = load i8, ptr %2, align 8, !tbaa !3, !range !11, !noundef !12
  %54 = trunc nuw i8 %53 to i1
  %55 = load ptr, ptr %46, align 8
  %56 = select i1 %54, ptr %55, ptr %46
  %57 = load i32, ptr %47, align 8, !tbaa !9
  %58 = sext i32 %57 to i64
  %59 = add nsw i64 %indvars.iv, %58
  %60 = getelementptr inbounds i16, ptr %56, i64 %59
  %61 = load i16, ptr %60, align 2, !tbaa !14
  %62 = load i8, ptr %0, align 8, !tbaa !3, !range !11, !noundef !12
  %63 = trunc nuw i8 %62 to i1
  %64 = load ptr, ptr %48, align 8
  %65 = select i1 %63, ptr %64, ptr %48
  %66 = add nsw i64 %indvars.iv, %51
  %67 = getelementptr inbounds i16, ptr %65, i64 %66
  store i16 %61, ptr %67, align 2, !tbaa !14
  %68 = load ptr, ptr %49, align 8
  %69 = select i1 %54, ptr %68, ptr %49
  %70 = getelementptr inbounds %"struct.icu_77::FormattedStringBuilder::Field", ptr %69, i64 %59
  %.sroa.0.0.copyload.i = load i8, ptr %70, align 1, !tbaa !13
  %71 = load ptr, ptr %50, align 8
  %72 = select i1 %63, ptr %71, ptr %50
  %73 = getelementptr inbounds %"struct.icu_77::FormattedStringBuilder::Field", ptr %72, i64 %66
  store i8 %.sroa.0.0.copyload.i, ptr %73, align 1, !tbaa !13
  %indvars.iv.next = add nuw nsw i64 %indvars.iv, 1
  %exitcond.not = icmp eq i64 %indvars.iv.next, %wide.trip.count
  br i1 %exitcond.not, label %.loopexit, label %52, !llvm.loop !21

.loopexit:                                        ; preds = %52, %10, %_ZN6icu_7722FormattedStringBuilder16prepareForInsertEiiR10UErrorCode.exit, %4, %9
  %.0 = phi i32 [ 0, %9 ], [ 0, %4 ], [ 0, %10 ], [ %12, %_ZN6icu_7722FormattedStringBuilder16prepareForInsertEiiR10UErrorCode.exit ], [ %12, %52 ]
  ret i32 %.0
}